; ModuleID = '51/108.c'
source_filename = "51/108.c"
target datalayout = "e-m:e-p270:32:32-p271:32:32-p272:64:64-i64:64-f80:128-n8:16:32:64-S128"
target triple = "x86_64-pc-linux-gnu"

@.str = private unnamed_addr constant [3 x i8] c"%d\00", align 1
@.str.1 = private unnamed_addr constant [3 x i8] c"%s\00", align 1
@.str.2 = private unnamed_addr constant [3 x i8] c"NO\00", align 1
@.str.3 = private unnamed_addr constant [4 x i8] c"%d\0A\00", align 1
@.str.4 = private unnamed_addr constant [3 x i8] c"%c\00", align 1
@.str.5 = private unnamed_addr constant [2 x i8] c"\0A\00", align 1

; Function Attrs: noinline nounwind uwtable
define dso_local i32 @main() #0 {
  %1 = alloca i32, align 4
  %2 = alloca i32, align 4
  %3 = alloca i32, align 4
  %4 = alloca i32, align 4
  %5 = alloca i32, align 4
  %6 = alloca i32, align 4
  %7 = alloca [501 x i32], align 16
  %8 = alloca [501 x i8], align 16
  %9 = alloca [501 x [6 x i8]], align 16
  store i32 0, i32* %1, align 4
  store i32 0, i32* %6, align 4
  %10 = bitcast [501 x i32]* %7 to i8*
  call void @llvm.memset.p0i8.i64(i8* align 16 %10, i8 0, i64 2004, i1 false)
  %11 = bitcast [501 x [6 x i8]]* %9 to i8*
  call void @llvm.memset.p0i8.i64(i8* align 16 %11, i8 0, i64 3006, i1 false)
  %12 = call i32 (i8*, ...) @__isoc99_scanf(i8* getelementptr inbounds ([3 x i8], [3 x i8]* @.str, i64 0, i64 0), i32* %2)
  %13 = getelementptr inbounds [501 x i8], [501 x i8]* %8, i64 0, i64 0
  %14 = call i32 (i8*, ...) @__isoc99_scanf(i8* getelementptr inbounds ([3 x i8], [3 x i8]* @.str.1, i64 0, i64 0), i8* %13)
  %15 = getelementptr inbounds [501 x i8], [501 x i8]* %8, i64 0, i64 0
  %16 = call i64 @strlen(i8* %15) #4
  %17 = trunc i64 %16 to i32
  store i32 %17, i32* %3, align 4
  store i32 0, i32* %5, align 4
  br label %18

18:                                               ; preds = %46, %0
  %19 = load i32, i32* %5, align 4
  %20 = load i32, i32* %3, align 4
  %21 = load i32, i32* %2, align 4
  %22 = sub nsw i32 %20, %21
  %23 = icmp sle i32 %19, %22
  br i1 %23, label %24, label %49

24:                                               ; preds = %18
  store i32 0, i32* %4, align 4
  br label %25

25:                                               ; preds = %42, %24
  %26 = load i32, i32* %4, align 4
  %27 = load i32, i32* %2, align 4
  %28 = icmp slt i32 %26, %27
  br i1 %28, label %29, label %45

29:                                               ; preds = %25
  %30 = load i32, i32* %4, align 4
  %31 = load i32, i32* %5, align 4
  %32 = add nsw i32 %30, %31
  %33 = sext i32 %32 to i64
  %34 = getelementptr inbounds [501 x i8], [501 x i8]* %8, i64 0, i64 %33
  %35 = load i8, i8* %34, align 1
  %36 = load i32, i32* %5, align 4
  %37 = sext i32 %36 to i64
  %38 = getelementptr inbounds [501 x [6 x i8]], [501 x [6 x i8]]* %9, i64 0, i64 %37
  %39 = load i32, i32* %4, align 4
  %40 = sext i32 %39 to i64
  %41 = getelementptr inbounds [6 x i8], [6 x i8]* %38, i64 0, i64 %40
  store i8 %35, i8* %41, align 1
  br label %42

42:                                               ; preds = %29
  %43 = load i32, i32* %4, align 4
  %44 = add nsw i32 %43, 1
  store i32 %44, i32* %4, align 4
  br label %25

45:                                               ; preds = %25
  br label %46

46:                                               ; preds = %45
  %47 = load i32, i32* %5, align 4
  %48 = add nsw i32 %47, 1
  store i32 %48, i32* %5, align 4
  br label %18

49:                                               ; preds = %18
  store i32 0, i32* %5, align 4
  br label %50

50:                                               ; preds = %87, %49
  %51 = load i32, i32* %5, align 4
  %52 = load i32, i32* %3, align 4
  %53 = load i32, i32* %2, align 4
  %54 = sub nsw i32 %52, %53
  %55 = icmp sle i32 %51, %54
  br i1 %55, label %56, label %90

56:                                               ; preds = %50
  %57 = load i32, i32* %5, align 4
  %58 = add nsw i32 %57, 1
  store i32 %58, i32* %4, align 4
  br label %59

59:                                               ; preds = %83, %56
  %60 = load i32, i32* %4, align 4
  %61 = load i32, i32* %3, align 4
  %62 = load i32, i32* %2, align 4
  %63 = sub nsw i32 %61, %62
  %64 = icmp sle i32 %60, %63
  br i1 %64, label %65, label %86

65:                                               ; preds = %59
  %66 = load i32, i32* %4, align 4
  %67 = sext i32 %66 to i64
  %68 = getelementptr inbounds [501 x [6 x i8]], [501 x [6 x i8]]* %9, i64 0, i64 %67
  %69 = getelementptr inbounds [6 x i8], [6 x i8]* %68, i64 0, i64 0
  %70 = load i32, i32* %5, align 4
  %71 = sext i32 %70 to i64
  %72 = getelementptr inbounds [501 x [6 x i8]], [501 x [6 x i8]]* %9, i64 0, i64 %71
  %73 = getelementptr inbounds [6 x i8], [6 x i8]* %72, i64 0, i64 0
  %74 = call i32 @strcmp(i8* %69, i8* %73) #4
  %75 = icmp eq i32 %74, 0
  br i1 %75, label %76, label %82

76:                                               ; preds = %65
  %77 = load i32, i32* %5, align 4
  %78 = sext i32 %77 to i64
  %79 = getelementptr inbounds [501 x i32], [501 x i32]* %7, i64 0, i64 %78
  %80 = load i32, i32* %79, align 4
  %81 = add nsw i32 %80, 1
  store i32 %81, i32* %79, align 4
  br label %82

82:                                               ; preds = %76, %65
  br label %83

83:                                               ; preds = %82
  %84 = load i32, i32* %4, align 4
  %85 = add nsw i32 %84, 1
  store i32 %85, i32* %4, align 4
  br label %59

86:                                               ; preds = %59
  br label %87

87:                                               ; preds = %86
  %88 = load i32, i32* %5, align 4
  %89 = add nsw i32 %88, 1
  store i32 %89, i32* %5, align 4
  br label %50

90:                                               ; preds = %50
  store i32 0, i32* %4, align 4
  br label %91

91:                                               ; preds = %110, %90
  %92 = load i32, i32* %4, align 4
  %93 = load i32, i32* %3, align 4
  %94 = load i32, i32* %2, align 4
  %95 = sub nsw i32 %93, %94
  %96 = icmp sle i32 %92, %95
  br i1 %96, label %97, label %113

97:                                               ; preds = %91
  %98 = load i32, i32* %4, align 4
  %99 = sext i32 %98 to i64
  %100 = getelementptr inbounds [501 x i32], [501 x i32]* %7, i64 0, i64 %99
  %101 = load i32, i32* %100, align 4
  %102 = load i32, i32* %6, align 4
  %103 = sext i32 %102 to i64
  %104 = getelementptr inbounds [501 x i32], [501 x i32]* %7, i64 0, i64 %103
  %105 = load i32, i32* %104, align 4
  %106 = icmp sgt i32 %101, %105
  br i1 %106, label %107, label %109

107:                                              ; preds = %97
  %108 = load i32, i32* %4, align 4
  store i32 %108, i32* %6, align 4
  br label %109

109:                                              ; preds = %107, %97
  br label %110

110:                                              ; preds = %109
  %111 = load i32, i32* %4, align 4
  %112 = add nsw i32 %111, 1
  store i32 %112, i32* %4, align 4
  br label %91

113:                                              ; preds = %91
  %114 = load i32, i32* %6, align 4
  %115 = sext i32 %114 to i64
  %116 = getelementptr inbounds [501 x i32], [501 x i32]* %7, i64 0, i64 %115
  %117 = load i32, i32* %116, align 4
  %118 = icmp eq i32 %117, 0
  br i1 %118, label %119, label %121

119:                                              ; preds = %113
  %120 = call i32 (i8*, ...) @printf(i8* getelementptr inbounds ([3 x i8], [3 x i8]* @.str.2, i64 0, i64 0))
  br label %121

121:                                              ; preds = %119, %113
  %122 = load i32, i32* %6, align 4
  %123 = sext i32 %122 to i64
  %124 = getelementptr inbounds [501 x i32], [501 x i32]* %7, i64 0, i64 %123
  %125 = load i32, i32* %124, align 4
  %126 = icmp ne i32 %125, 0
  br i1 %126, label %127, label %175

127:                                              ; preds = %121
  %128 = load i32, i32* %6, align 4
  %129 = sext i32 %128 to i64
  %130 = getelementptr inbounds [501 x i32], [501 x i32]* %7, i64 0, i64 %129
  %131 = load i32, i32* %130, align 4
  %132 = add nsw i32 %131, 1
  %133 = call i32 (i8*, ...) @printf(i8* getelementptr inbounds ([4 x i8], [4 x i8]* @.str.3, i64 0, i64 0), i32 %132)
  store i32 0, i32* %5, align 4
  br label %134

134:                                              ; preds = %171, %127
  %135 = load i32, i32* %5, align 4
  %136 = load i32, i32* %3, align 4
  %137 = load i32, i32* %2, align 4
  %138 = sub nsw i32 %136, %137
  %139 = icmp sle i32 %135, %138
  br i1 %139, label %140, label %174

140:                                              ; preds = %134
  %141 = load i32, i32* %5, align 4
  %142 = sext i32 %141 to i64
  %143 = getelementptr inbounds [501 x i32], [501 x i32]* %7, i64 0, i64 %142
  %144 = load i32, i32* %143, align 4
  %145 = load i32, i32* %6, align 4
  %146 = sext i32 %145 to i64
  %147 = getelementptr inbounds [501 x i32], [501 x i32]* %7, i64 0, i64 %146
  %148 = load i32, i32* %147, align 4
  %149 = icmp eq i32 %144, %148
  br i1 %149, label %150, label %170

150:                                              ; preds = %140
  store i32 0, i32* %4, align 4
  br label %151

151:                                              ; preds = %165, %150
  %152 = load i32, i32* %4, align 4
  %153 = load i32, i32* %2, align 4
  %154 = icmp slt i32 %152, %153
  br i1 %154, label %155, label %168

155:                                              ; preds = %151
  %156 = load i32, i32* %5, align 4
  %157 = sext i32 %156 to i64
  %158 = getelementptr inbounds [501 x [6 x i8]], [501 x [6 x i8]]* %9, i64 0, i64 %157
  %159 = load i32, i32* %4, align 4
  %160 = sext i32 %159 to i64
  %161 = getelementptr inbounds [6 x i8], [6 x i8]* %158, i64 0, i64 %160
  %162 = load i8, i8* %161, align 1
  %163 = sext i8 %162 to i32
  %164 = call i32 (i8*, ...) @printf(i8* getelementptr inbounds ([3 x i8], [3 x i8]* @.str.4, i64 0, i64 0), i32 %163)
  br label %165

165:                                              ; preds = %155
  %166 = load i32, i32* %4, align 4
  %167 = add nsw i32 %166, 1
  store i32 %167, i32* %4, align 4
  br label %151

168:                                              ; preds = %151
  %169 = call i32 (i8*, ...) @printf(i8* getelementptr inbounds ([2 x i8], [2 x i8]* @.str.5, i64 0, i64 0))
  br label %170

170:                                              ; preds = %168, %140
  br label %171

171:                                              ; preds = %170
  %172 = load i32, i32* %5, align 4
  %173 = add nsw i32 %172, 1
  store i32 %173, i32* %5, align 4
  br label %134

174:                                              ; preds = %134
  br label %175

175:                                              ; preds = %174, %121
  ret i32 0
}

; Function Attrs: argmemonly nounwind willreturn
declare void @llvm.memset.p0i8.i64(i8* nocapture writeonly, i8, i64, i1 immarg) #1

declare dso_local i32 @__isoc99_scanf(i8*, ...) #2

; Function Attrs: nounwind readonly
declare dso_local i64 @strlen(i8*) #3

; Function Attrs: nounwind readonly
declare dso_local i32 @strcmp(i8*, i8*) #3

declare dso_local i32 @printf(i8*, ...) #2


!llvm.module.flags = !{!0}
!llvm.ident = !{!1}

!0 = !{i32 1, !"wchar_size", i32 4}
!1 = !{!"clang version 10.0.0-4ubuntu1 "}
